target datalayout = "e-m:e-p270:32:32-p271:32:32-p272:64:64-i64:64-i128:128-f80:128-n8:16:32:64-S128"
target triple = "x86_64-pc-linux-gnu"

%struct.mbedtls_x509_crt = type { i32, %struct.mbedtls_asn1_buf, %struct.mbedtls_asn1_buf, i32, %struct.mbedtls_asn1_buf, %struct.mbedtls_asn1_buf, %struct.mbedtls_asn1_buf, %struct.mbedtls_asn1_buf, %struct.mbedtls_asn1_named_data, %struct.mbedtls_asn1_named_data, %struct.mbedtls_x509_time, %struct.mbedtls_x509_time, %struct.mbedtls_asn1_buf, %struct.mbedtls_pk_context, %struct.mbedtls_asn1_buf, %struct.mbedtls_asn1_buf, %struct.mbedtls_asn1_buf, %struct.mbedtls_asn1_sequence, %struct.mbedtls_asn1_buf, %struct.mbedtls_x509_authority, %struct.mbedtls_asn1_sequence, i32, i32, i32, i32, %struct.mbedtls_asn1_sequence, i8, %struct.mbedtls_asn1_buf, i32, i32, ptr, ptr }
%struct.mbedtls_asn1_named_data = type { %struct.mbedtls_asn1_buf, %struct.mbedtls_asn1_buf, ptr, i8 }
%struct.mbedtls_x509_time = type { i32, i32, i32, i32, i32, i32 }
%struct.mbedtls_pk_context = type { ptr, ptr }
%struct.mbedtls_x509_authority = type { %struct.mbedtls_asn1_buf, %struct.mbedtls_asn1_sequence, %struct.mbedtls_asn1_buf, %struct.mbedtls_asn1_buf }
%struct.mbedtls_asn1_sequence = type { %struct.mbedtls_asn1_buf, ptr }
%struct.mbedtls_asn1_buf = type { i32, i64, ptr }
%struct.mbedtls_x509_crl = type { %struct.mbedtls_asn1_buf, %struct.mbedtls_asn1_buf, i32, %struct.mbedtls_asn1_buf, %struct.mbedtls_asn1_buf, %struct.mbedtls_asn1_named_data, %struct.mbedtls_x509_time, %struct.mbedtls_x509_time, %struct.mbedtls_x509_crl_entry, %struct.mbedtls_asn1_buf, %struct.mbedtls_asn1_buf, %struct.mbedtls_asn1_buf, i32, i32, ptr, ptr }
%struct.mbedtls_x509_crl_entry = type { %struct.mbedtls_asn1_buf, %struct.mbedtls_asn1_buf, %struct.mbedtls_x509_time, %struct.mbedtls_asn1_buf, ptr }

; Function Attrs: nounwind uwtable
define hidden i32 @mbedtls_x509_crt_is_revoked(ptr noundef %0, ptr noundef %1) #0 {
  %3 = alloca i32, align 4
  %4 = alloca ptr, align 8
  %5 = alloca ptr, align 8
  %6 = alloca ptr, align 8
  %7 = alloca i32, align 4
  store ptr %0, ptr %4, align 8, !tbaa !3
  store ptr %1, ptr %5, align 8, !tbaa !82
  call void @llvm.lifetime.start.p0(i64 8, ptr %6) #10
  %8 = load ptr, ptr %5, align 8, !tbaa !82
  %9 = getelementptr inbounds nuw %struct.mbedtls_x509_crl, ptr %8, i32 0, i32 8
  store ptr %9, ptr %6, align 8, !tbaa !84
  br label %10

10:                                               ; preds = %47, %2
  %11 = load ptr, ptr %6, align 8, !tbaa !84
  %12 = icmp ne ptr %11, null
  br i1 %12, label %13, label %19

13:                                               ; preds = %10
  %14 = load ptr, ptr %6, align 8, !tbaa !84
  %15 = getelementptr inbounds nuw %struct.mbedtls_x509_crl_entry, ptr %14, i32 0, i32 1
  %16 = getelementptr inbounds nuw %struct.mbedtls_asn1_buf, ptr %15, i32 0, i32 1
  %17 = load i64, ptr %16, align 8, !tbaa !86
  %18 = icmp ne i64 %17, 0
  br label %19

19:                                               ; preds = %13, %10
  %20 = phi i1 [ false, %10 ], [ %18, %13 ]
  br i1 %20, label %21, label %51

21:                                               ; preds = %19
  %22 = load ptr, ptr %4, align 8, !tbaa !3
  %23 = getelementptr inbounds nuw %struct.mbedtls_x509_crt, ptr %22, i32 0, i32 4
  %24 = getelementptr inbounds nuw %struct.mbedtls_asn1_buf, ptr %23, i32 0, i32 1
  %25 = load i64, ptr %24, align 8, !tbaa !88
  %26 = load ptr, ptr %6, align 8, !tbaa !84
  %27 = getelementptr inbounds nuw %struct.mbedtls_x509_crl_entry, ptr %26, i32 0, i32 1
  %28 = getelementptr inbounds nuw %struct.mbedtls_asn1_buf, ptr %27, i32 0, i32 1
  %29 = load i64, ptr %28, align 8, !tbaa !86
  %30 = icmp eq i64 %25, %29
  br i1 %30, label %31, label %47

31:                                               ; preds = %21
  %32 = load ptr, ptr %4, align 8, !tbaa !3
  %33 = getelementptr inbounds nuw %struct.mbedtls_x509_crt, ptr %32, i32 0, i32 4
  %34 = getelementptr inbounds nuw %struct.mbedtls_asn1_buf, ptr %33, i32 0, i32 2
  %35 = load ptr, ptr %34, align 8, !tbaa !89
  %36 = load ptr, ptr %6, align 8, !tbaa !84
  %37 = getelementptr inbounds nuw %struct.mbedtls_x509_crl_entry, ptr %36, i32 0, i32 1
  %38 = getelementptr inbounds nuw %struct.mbedtls_asn1_buf, ptr %37, i32 0, i32 2
  %39 = load ptr, ptr %38, align 8, !tbaa !90
  %40 = load ptr, ptr %4, align 8, !tbaa !3
  %41 = getelementptr inbounds nuw %struct.mbedtls_x509_crt, ptr %40, i32 0, i32 4
  %42 = getelementptr inbounds nuw %struct.mbedtls_asn1_buf, ptr %41, i32 0, i32 1
  %43 = load i64, ptr %42, align 8, !tbaa !88
  %44 = call i32 @memcmp(ptr noundef %35, ptr noundef %39, i64 noundef %43) #12
  %45 = icmp eq i32 %44, 0
  br i1 %45, label %46, label %47

46:                                               ; preds = %31
  store i32 1, ptr %3, align 4
  store i32 1, ptr %7, align 4
  br label %52

47:                                               ; preds = %31, %21
  %48 = load ptr, ptr %6, align 8, !tbaa !84
  %49 = getelementptr inbounds nuw %struct.mbedtls_x509_crl_entry, ptr %48, i32 0, i32 4
  %50 = load ptr, ptr %49, align 8, !tbaa !91
  store ptr %50, ptr %6, align 8, !tbaa !84
  br label %10, !llvm.loop !92

51:                                               ; preds = %19
  store i32 0, ptr %3, align 4
  store i32 1, ptr %7, align 4
  br label %52

52:                                               ; preds = %51, %46
  call void @llvm.lifetime.end.p0(i64 8, ptr %6) #10
  %53 = load i32, ptr %3, align 4
  ret i32 %53
}