; Function Attrs: nofree nounwind memory(read, inaccessiblemem: none) uwtable
define hidden range(i32 0, 2) i32 @mbedtls_x509_crt_is_revoked(ptr noundef readonly captures(none) %0, ptr noundef readonly captures(none) %1) local_unnamed_addr #9 {
  %3 = getelementptr inbounds nuw i8, ptr %1, i64 216
  %4 = getelementptr inbounds nuw i8, ptr %0, i64 80
  %5 = getelementptr inbounds nuw i8, ptr %0, i64 72
  br label %6

6:                                                ; preds = %2, %17
  %.013 = phi ptr [ %3, %2 ], [ %19, %17 ]
  %7 = getelementptr inbounds nuw i8, ptr %.013, i64 32
  %8 = load i64, ptr %7, align 8, !tbaa !80
  %.not12 = icmp eq i64 %8, 0
  br i1 %.not12, label %.critedge, label %9

9:                                                ; preds = %6
  %10 = load i64, ptr %5, align 8, !tbaa !83
  %11 = icmp eq i64 %10, %8
  br i1 %11, label %12, label %17

12:                                               ; preds = %9
  %13 = load ptr, ptr %4, align 8, !tbaa !84
  %14 = getelementptr inbounds nuw i8, ptr %.013, i64 40
  %15 = load ptr, ptr %14, align 8, !tbaa !85
  %bcmp = tail call i32 @bcmp(ptr %13, ptr %15, i64 %8)
  %16 = icmp eq i32 %bcmp, 0
  br i1 %16, label %.critedge, label %17

17:                                               ; preds = %12, %9
  %18 = getelementptr inbounds nuw i8, ptr %.013, i64 96
  %19 = load ptr, ptr %18, align 8, !tbaa !86
  %.not = icmp eq ptr %19, null
  br i1 %.not, label %.critedge, label %6, !llvm.loop !87

.critedge:                                        ; preds = %6, %17, %12
  %.09 = phi i32 [ 1, %12 ], [ 0, %17 ], [ 0, %6 ]
  ret i32 %.09
}